; Function Attrs: mustprogress nounwind uwtable
define internal void @_ZN5faiss12_GLOBAL__N_114FlatHammingDisINS_22HammingComputerDefaultEED0Ev(ptr noundef nonnull align 8 dereferenceable(48) %0) unnamed_addr #0 align 2 {
  %2 = tail call i32 @__kmpc_global_thread_num(ptr nonnull @3)
  store ptr getelementptr inbounds ({ [8 x ptr] }, ptr @_ZTVN5faiss12_GLOBAL__N_114FlatHammingDisINS_22HammingComputerDefaultEEE, i64 0, i32 0, i64 2), ptr %0, align 8
  tail call void @__kmpc_critical(ptr nonnull @3, i32 %2, ptr nonnull @.gomp_critical_user_.var)
  %3 = getelementptr inbounds i8, ptr %0, i64 24
  %4 = load i64, ptr %3, align 8
  %5 = load i64, ptr getelementptr inbounds (%"struct.faiss::HNSWStats", ptr @_ZN5faiss10hnsw_statsE, i64 0, i32 3), align 8
  %6 = add i64 %5, %4
  store i64 %6, ptr getelementptr inbounds (%"struct.faiss::HNSWStats", ptr @_ZN5faiss10hnsw_statsE, i64 0, i32 3), align 8
  tail call void @__kmpc_end_critical(ptr nonnull @3, i32 %2, ptr nonnull @.gomp_critical_user_.var)
  tail call void @_ZdlPv(ptr noundef nonnull %0) #21
  ret void
}